target datalayout = "e-m:e-p270:32:32-p271:32:32-p272:64:64-i64:64-i128:128-f80:128-n8:16:32:64-S128"
target triple = "x86_64-pc-linux-gnu"

%"class.std::__cxx11::basic_string" = type { %"struct.std::__cxx11::basic_string<char>::_Alloc_hider", i64, %union.anon }
%"struct.std::__cxx11::basic_string<char>::_Alloc_hider" = type { ptr }
%union.anon = type { i64, [8 x i8] }
%"class.llvm::SmallVectorBase" = type { ptr, i32, i32 }
%"class.llvm::StringRef" = type { ptr, i64 }
%"struct.std::_Vector_base.31" = type { %"struct.std::_Vector_base<llvm::Record *, std::allocator<llvm::Record *>>::_Vector_impl" }
%"struct.std::_Vector_base<llvm::Record *, std::allocator<llvm::Record *>>::_Vector_impl" = type { %"struct.std::_Vector_base<llvm::Record *, std::allocator<llvm::Record *>>::_Vector_impl_data" }
%"struct.std::_Vector_base<llvm::Record *, std::allocator<llvm::Record *>>::_Vector_impl_data" = type { ptr, ptr, ptr }
%"class.llvm::StringMapImpl" = type { ptr, i32, i32, i32, i32 }
%"class.std::vector.30" = type { %"struct.std::_Vector_base.31" }
%"class.llvm::gi::PredicateMatcher.base" = type <{ ptr, i32, i32, i32 }>
%"class.llvm::gi::InstructionPredicateMatcher.base" = type { %"class.llvm::gi::PredicateMatcher.base" }
%"class.llvm::CodeGenInstruction" = type <{ ptr, %"class.llvm::StringRef", %"class.std::__cxx11::basic_string", %"class.llvm::CGIOperandList", %"class.std::vector.30", %"class.std::vector.30", i64, %"class.std::__cxx11::basic_string", i8, [7 x i8], ptr, i32, [4 x i8] }>
%"class.llvm::CGIOperandList" = type <{ ptr, i32, [4 x i8], %"class.std::vector.371", %"class.llvm::StringMap.376", i8, i8, i8, [5 x i8] }>
%"class.std::vector.371" = type { %"struct.std::_Vector_base.372" }
%"struct.std::_Vector_base.372" = type { %"struct.std::_Vector_base<llvm::CGIOperandList::OperandInfo, std::allocator<llvm::CGIOperandList::OperandInfo>>::_Vector_impl" }
%"struct.std::_Vector_base<llvm::CGIOperandList::OperandInfo, std::allocator<llvm::CGIOperandList::OperandInfo>>::_Vector_impl" = type { %"struct.std::_Vector_base<llvm::CGIOperandList::OperandInfo, std::allocator<llvm::CGIOperandList::OperandInfo>>::_Vector_impl_data" }
%"struct.std::_Vector_base<llvm::CGIOperandList::OperandInfo, std::allocator<llvm::CGIOperandList::OperandInfo>>::_Vector_impl_data" = type { ptr, ptr, ptr }
%"class.llvm::StringMap.376" = type { %"class.llvm::StringMapImpl" }
%"class.llvm::gi::InstructionOpcodeMatcher" = type { %"class.llvm::gi::InstructionPredicateMatcher.base", %"class.llvm::SmallVector.143" }
%"class.llvm::SmallVector.143" = type { %"class.llvm::SmallVectorImpl.144", %"struct.llvm::SmallVectorStorage.147" }
%"class.llvm::SmallVectorImpl.144" = type { %"class.llvm::SmallVectorTemplateBase.145" }
%"class.llvm::SmallVectorTemplateBase.145" = type { %"class.llvm::SmallVectorTemplateCommon.146" }
%"class.llvm::SmallVectorTemplateCommon.146" = type { %"class.llvm::SmallVectorBase" }
%"struct.llvm::SmallVectorStorage.147" = type { [16 x i8] }

; Function Attrs: mustprogress nounwind uwtable
define linkonce_odr hidden noundef ptr @_ZNK4llvm25SmallVectorTemplateCommonIPKNS_18CodeGenInstructionEvE5beginEv(ptr noundef nonnull align 8 dereferenceable(16) %0) #1 comdat align 2 {
  %2 = alloca ptr, align 8
  store ptr %0, ptr %2, align 8
  %3 = load ptr, ptr %2, align 8
  %4 = getelementptr inbounds nuw %"class.llvm::SmallVectorBase", ptr %3, i32 0, i32 0
  %5 = load ptr, ptr %4, align 8
  ret ptr %5
}

; Function Attrs: mustprogress nounwind uwtable
define linkonce_odr hidden noundef nonnull align 8 dereferenceable(8) ptr @_ZNK4llvm25SmallVectorTemplateCommonIPKNS_18CodeGenInstructionEvEixEm(ptr noundef nonnull align 8 dereferenceable(16) %0, i64 noundef %1) #1 comdat align 2 {
  %3 = alloca ptr, align 8
  %4 = alloca i64, align 8
  store ptr %0, ptr %3, align 8
  store i64 %1, ptr %4, align 8
  %5 = load ptr, ptr %3, align 8
  %6 = call noundef ptr @_ZNK4llvm25SmallVectorTemplateCommonIPKNS_18CodeGenInstructionEvE5beginEv(ptr noundef nonnull align 8 dereferenceable(16) %5)
  %7 = load i64, ptr %4, align 8
  %8 = getelementptr inbounds ptr, ptr %6, i64 %7
  ret ptr %8
}

; Function Attrs: mustprogress nounwind uwtable
define dso_local noundef zeroext i1 @_ZNK4llvm2gi24InstructionOpcodeMatcher21isVariadicNumOperandsEv(ptr noundef nonnull align 8 dereferenceable(56) %0) #1 align 2 {
  %2 = alloca ptr, align 8
  store ptr %0, ptr %2, align 8
  %3 = load ptr, ptr %2, align 8
  %4 = getelementptr inbounds nuw %"class.llvm::gi::InstructionOpcodeMatcher", ptr %3, i32 0, i32 1
  %5 = call noundef nonnull align 8 dereferenceable(8) ptr @_ZNK4llvm25SmallVectorTemplateCommonIPKNS_18CodeGenInstructionEvEixEm(ptr noundef nonnull align 8 dereferenceable(16) %4, i64 noundef 0)
  %6 = load ptr, ptr %5, align 8
  %7 = getelementptr inbounds nuw %"class.llvm::CodeGenInstruction", ptr %6, i32 0, i32 3
  %8 = getelementptr inbounds nuw %"class.llvm::CGIOperandList", ptr %7, i32 0, i32 7
  %9 = load i8, ptr %8, align 2
  %10 = trunc i8 %9 to i1
  ret i1 %10
}